target datalayout = "e-m:e-p270:32:32-p271:32:32-p272:64:64-i64:64-i128:128-f80:128-n8:16:32:64-S128"
target triple = "x86_64-unknown-linux-gnu"

%struct.pixman_color = type { i16, i16, i16, i16 }
%struct.DisplaySurface = type { ptr, i8 }

@.str.7 = private unnamed_addr constant [24 x i8] c"../qemu/ui/console-vc.c\00", align 1
@.str.8 = private unnamed_addr constant [8 x i8] c"surface\00", align 1
@vga_putcharxy.glyphs = internal global [256 x ptr] zeroinitializer, align 16
@__PRETTY_FUNCTION__.vga_putcharxy = private unnamed_addr constant [67 x i8] c"void vga_putcharxy(QemuConsole *, int, int, int, TextAttributes *)\00", align 1

; Function Attrs: nounwind sspstrong uwtable
define internal void @vga_putcharxy(ptr noundef %s, i32 noundef %x, i32 noundef %y, i32 noundef %ch, ptr noundef %t_attrib) #0 {
entry:
  %s.addr = alloca ptr, align 8
  %x.addr = alloca i32, align 4
  %y.addr = alloca i32, align 4
  %ch.addr = alloca i32, align 4
  %t_attrib.addr = alloca ptr, align 8
  %surface = alloca ptr, align 8
  %fgcol = alloca %struct.pixman_color, align 2
  %bgcol = alloca %struct.pixman_color, align 2
  store ptr %s, ptr %s.addr, align 8
  store i32 %x, ptr %x.addr, align 4
  store i32 %y, ptr %y.addr, align 4
  store i32 %ch, ptr %ch.addr, align 4
  store ptr %t_attrib, ptr %t_attrib.addr, align 8
  %0 = load ptr, ptr %s.addr, align 8
  %call = call ptr @qemu_console_surface(ptr noundef %0)
  store ptr %call, ptr %surface, align 8
  %1 = load ptr, ptr %surface, align 8
  %tobool = icmp ne ptr %1, null
  br i1 %tobool, label %if.then, label %if.else

if.then:                                          ; preds = %entry
  br label %if.end

if.else:                                          ; preds = %entry
  call void @__assert_fail(ptr noundef @.str.8, ptr noundef @.str.7, i32 noundef 159, ptr noundef @__PRETTY_FUNCTION__.vga_putcharxy) #7
  unreachable

if.end:                                           ; preds = %if.then
  %2 = load ptr, ptr %t_attrib.addr, align 8
  %bf.load = load i16, ptr %2, align 1
  %bf.lshr = lshr i16 %bf.load, 11
  %bf.clear = and i16 %bf.lshr, 1
  %bf.cast = trunc i16 %bf.clear to i8
  %tobool1 = icmp ne i8 %bf.cast, 0
  br i1 %tobool1, label %if.then2, label %if.else24

if.then2:                                         ; preds = %if.end
  %3 = load ptr, ptr %t_attrib.addr, align 8
  %bf.load3 = load i16, ptr %3, align 1
  %bf.lshr4 = lshr i16 %bf.load3, 8
  %bf.clear5 = and i16 %bf.lshr4, 1
  %bf.cast6 = trunc i16 %bf.clear5 to i8
  %idxprom = zext i8 %bf.cast6 to i64
  %arrayidx = getelementptr [2 x [8 x %struct.pixman_color]], ptr @color_table_rgb, i64 0, i64 %idxprom
  %4 = load ptr, ptr %t_attrib.addr, align 8
  %bf.load7 = load i16, ptr %4, align 1
  %bf.clear8 = and i16 %bf.load7, 15
  %bf.cast9 = trunc i16 %bf.clear8 to i8
  %idxprom10 = zext i8 %bf.cast9 to i64
  %arrayidx11 = getelementptr [8 x %struct.pixman_color], ptr %arrayidx, i64 0, i64 %idxprom10
  call void @llvm.memcpy.p0.p0.i64(ptr align 2 %bgcol, ptr align 8 %arrayidx11, i64 8, i1 false)
  %5 = load ptr, ptr %t_attrib.addr, align 8
  %bf.load12 = load i16, ptr %5, align 1
  %bf.lshr13 = lshr i16 %bf.load12, 8
  %bf.clear14 = and i16 %bf.lshr13, 1
  %bf.cast15 = trunc i16 %bf.clear14 to i8
  %idxprom16 = zext i8 %bf.cast15 to i64
  %arrayidx17 = getelementptr [2 x [8 x %struct.pixman_color]], ptr @color_table_rgb, i64 0, i64 %idxprom16
  %6 = load ptr, ptr %t_attrib.addr, align 8
  %bf.load18 = load i16, ptr %6, align 1
  %bf.lshr19 = lshr i16 %bf.load18, 4
  %bf.clear20 = and i16 %bf.lshr19, 15
  %bf.cast21 = trunc i16 %bf.clear20 to i8
  %idxprom22 = zext i8 %bf.cast21 to i64
  %arrayidx23 = getelementptr [8 x %struct.pixman_color], ptr %arrayidx17, i64 0, i64 %idxprom22
  call void @llvm.memcpy.p0.p0.i64(ptr align 2 %fgcol, ptr align 8 %arrayidx23, i64 8, i1 false)
  br label %if.end48

if.else24:                                        ; preds = %if.end
  %7 = load ptr, ptr %t_attrib.addr, align 8
  %bf.load25 = load i16, ptr %7, align 1
  %bf.lshr26 = lshr i16 %bf.load25, 8
  %bf.clear27 = and i16 %bf.lshr26, 1
  %bf.cast28 = trunc i16 %bf.clear27 to i8
  %idxprom29 = zext i8 %bf.cast28 to i64
  %arrayidx30 = getelementptr [2 x [8 x %struct.pixman_color]], ptr @color_table_rgb, i64 0, i64 %idxprom29
  %8 = load ptr, ptr %t_attrib.addr, align 8
  %bf.load31 = load i16, ptr %8, align 1
  %bf.clear32 = and i16 %bf.load31, 15
  %bf.cast33 = trunc i16 %bf.clear32 to i8
  %idxprom34 = zext i8 %bf.cast33 to i64
  %arrayidx35 = getelementptr [8 x %struct.pixman_color], ptr %arrayidx30, i64 0, i64 %idxprom34
  call void @llvm.memcpy.p0.p0.i64(ptr align 2 %fgcol, ptr align 8 %arrayidx35, i64 8, i1 false)
  %9 = load ptr, ptr %t_attrib.addr, align 8
  %bf.load36 = load i16, ptr %9, align 1
  %bf.lshr37 = lshr i16 %bf.load36, 8
  %bf.clear38 = and i16 %bf.lshr37, 1
  %bf.cast39 = trunc i16 %bf.clear38 to i8
  %idxprom40 = zext i8 %bf.cast39 to i64
  %arrayidx41 = getelementptr [2 x [8 x %struct.pixman_color]], ptr @color_table_rgb, i64 0, i64 %idxprom40
  %10 = load ptr, ptr %t_attrib.addr, align 8
  %bf.load42 = load i16, ptr %10, align 1
  %bf.lshr43 = lshr i16 %bf.load42, 4
  %bf.clear44 = and i16 %bf.lshr43, 15
  %bf.cast45 = trunc i16 %bf.clear44 to i8
  %idxprom46 = zext i8 %bf.cast45 to i64
  %arrayidx47 = getelementptr [8 x %struct.pixman_color], ptr %arrayidx41, i64 0, i64 %idxprom46
  call void @llvm.memcpy.p0.p0.i64(ptr align 2 %bgcol, ptr align 8 %arrayidx47, i64 8, i1 false)
  br label %if.end48

if.end48:                                         ; preds = %if.else24, %if.then2
  %11 = load i32, ptr %ch.addr, align 4
  %idxprom49 = sext i32 %11 to i64
  %arrayidx50 = getelementptr [256 x ptr], ptr @vga_putcharxy.glyphs, i64 0, i64 %idxprom49
  %12 = load ptr, ptr %arrayidx50, align 8
  %tobool51 = icmp ne ptr %12, null
  br i1 %tobool51, label %if.end56, label %if.then52

if.then52:                                        ; preds = %if.end48
  %13 = load i32, ptr %ch.addr, align 4
  %call53 = call ptr @qemu_pixman_glyph_from_vgafont(i32 noundef 16, ptr noundef @vgafont16, i32 noundef %13)
  %14 = load i32, ptr %ch.addr, align 4
  %idxprom54 = sext i32 %14 to i64
  %arrayidx55 = getelementptr [256 x ptr], ptr @vga_putcharxy.glyphs, i64 0, i64 %idxprom54
  store ptr %call53, ptr %arrayidx55, align 8
  br label %if.end56

if.end56:                                         ; preds = %if.then52, %if.end48
  %15 = load i32, ptr %ch.addr, align 4
  %idxprom57 = sext i32 %15 to i64
  %arrayidx58 = getelementptr [256 x ptr], ptr @vga_putcharxy.glyphs, i64 0, i64 %idxprom57
  %16 = load ptr, ptr %arrayidx58, align 8
  %17 = load ptr, ptr %surface, align 8
  %image = getelementptr inbounds %struct.DisplaySurface, ptr %17, i32 0, i32 0
  %18 = load ptr, ptr %image, align 8
  %19 = load i32, ptr %x.addr, align 4
  %20 = load i32, ptr %y.addr, align 4
  call void @qemu_pixman_glyph_render(ptr noundef %16, ptr noundef %18, ptr noundef %fgcol, ptr noundef %bgcol, i32 noundef %19, i32 noundef %20, i32 noundef 8, i32 noundef 16)
  ret void
}