; Function Attrs: nounwind sspstrong uwtable
define internal fastcc void @vga_putcharxy(ptr noundef %s, i32 noundef %x, i32 noundef %y, i32 noundef range(i32 0, 256) %ch, ptr noundef readonly captures(none) %t_attrib) unnamed_addr #0 {
entry:
  %fgcol = alloca %struct.pixman_color, align 8
  %bgcol = alloca %struct.pixman_color, align 8
  %call = tail call ptr @qemu_console_surface(ptr noundef %s) #12
  %tobool.not = icmp eq ptr %call, null
  br i1 %tobool.not, label %if.else, label %if.end

if.else:                                          ; preds = %entry
  tail call void @__assert_fail(ptr noundef nonnull @.str.8, ptr noundef nonnull @.str.7, i32 noundef 159, ptr noundef nonnull @__PRETTY_FUNCTION__.vga_putcharxy) #14
  unreachable

if.end:                                           ; preds = %entry
  %bf.load = load i16, ptr %t_attrib, align 1
  %0 = and i16 %bf.load, 2048
  %tobool1.not = icmp eq i16 %0, 0
  %bf.lshr26 = lshr i16 %bf.load, 8
  %1 = and i16 %bf.lshr26, 1
  %bf.cast28 = zext nneg i16 %1 to i64
  %2 = and i16 %bf.load, 15
  %bf.cast33 = zext nneg i16 %2 to i64
  %arrayidx35 = getelementptr [2 x [8 x %struct.pixman_color]], ptr @color_table_rgb, i64 0, i64 %bf.cast28, i64 %bf.cast33
  %3 = lshr i16 %bf.load, 4
  %4 = and i16 %3, 15
  %idxprom46 = zext nneg i16 %4 to i64
  %arrayidx47 = getelementptr [2 x [8 x %struct.pixman_color]], ptr @color_table_rgb, i64 0, i64 %bf.cast28, i64 %idxprom46
  %arrayidx35.arrayidx47 = select i1 %tobool1.not, ptr %arrayidx35, ptr %arrayidx47
  %arrayidx47.arrayidx35 = select i1 %tobool1.not, ptr %arrayidx47, ptr %arrayidx35
  %.sink = load i64, ptr %arrayidx47.arrayidx35, align 8
  %.sink14 = load i64, ptr %arrayidx35.arrayidx47, align 8
  store i64 %.sink14, ptr %fgcol, align 8
  store i64 %.sink, ptr %bgcol, align 8
  %idxprom49 = zext nneg i32 %ch to i64
  %arrayidx50 = getelementptr [256 x ptr], ptr @vga_putcharxy.glyphs, i64 0, i64 %idxprom49
  %5 = load ptr, ptr %arrayidx50, align 8
  %tobool51.not = icmp eq ptr %5, null
  br i1 %tobool51.not, label %if.then52, label %if.end56

if.then52:                                        ; preds = %if.end
  %call53 = tail call ptr @qemu_pixman_glyph_from_vgafont(i32 noundef 16, ptr noundef nonnull @vgafont16, i32 noundef %ch) #12
  store ptr %call53, ptr %arrayidx50, align 8
  br label %if.end56

if.end56:                                         ; preds = %if.then52, %if.end
  %6 = phi ptr [ %call53, %if.then52 ], [ %5, %if.end ]
  %7 = load ptr, ptr %call, align 8
  call void @qemu_pixman_glyph_render(ptr noundef %6, ptr noundef %7, ptr noundef nonnull %fgcol, ptr noundef nonnull %bgcol, i32 noundef %x, i32 noundef %y, i32 noundef 8, i32 noundef 16) #12
  ret void
}